target datalayout = "e-m:e-p270:32:32-p271:32:32-p272:64:64-i64:64-i128:128-f80:128-n8:16:32:64-S128"
target triple = "x86_64-pc-linux-gnu"

%struct._timelib_tzinfo = type { ptr, %struct.anon, %struct.anon.0, ptr, ptr, ptr, ptr, ptr, i8, %struct._tlocinfo, ptr, ptr }
%struct.anon = type { i32, i32, i32, i32, i32, i32 }
%struct.anon.0 = type { i64, i64, i64, i64, i64, i64 }
%struct._tlocinfo = type { [3 x i8], double, double, ptr }
%struct._tlinfo = type { i64, i32 }
%struct._ttinfo = type { i32, i32, i32, i32, i32 }
%struct._timelib_time_offset = type { i32, i32, i32, ptr, i64 }

@.str.493 = private unnamed_addr constant [4 x i8] c"GMT\00", align 1

; Function Attrs: nounwind uwtable
define internal ptr @fetch_leaptime_offset(ptr noundef %0, i64 noundef %1) #0 {
  %3 = alloca ptr, align 8
  %4 = alloca ptr, align 8
  %5 = alloca i64, align 8
  %6 = alloca i32, align 4
  %7 = alloca i32, align 4
  store ptr %0, ptr %4, align 8, !tbaa !4
  store i64 %1, ptr %5, align 8, !tbaa !64
  call void @llvm.lifetime.start.p0(i64 4, ptr %6) #11
  %8 = load ptr, ptr %4, align 8, !tbaa !4
  %9 = getelementptr inbounds nuw %struct._timelib_tzinfo, ptr %8, i32 0, i32 2
  %10 = getelementptr inbounds nuw %struct.anon.0, ptr %9, i32 0, i32 2
  %11 = load i64, ptr %10, align 8, !tbaa !27
  %12 = icmp ne i64 %11, 0
  br i1 %12, label %13, label %18

13:                                               ; preds = %2
  %14 = load ptr, ptr %4, align 8, !tbaa !4
  %15 = getelementptr inbounds nuw %struct._timelib_tzinfo, ptr %14, i32 0, i32 7
  %16 = load ptr, ptr %15, align 8, !tbaa !37
  %17 = icmp ne ptr %16, null
  br i1 %17, label %19, label %18

18:                                               ; preds = %13, %2
  store ptr null, ptr %3, align 8
  store i32 1, ptr %7, align 4
  br label %52

19:                                               ; preds = %13
  %20 = load ptr, ptr %4, align 8, !tbaa !4
  %21 = getelementptr inbounds nuw %struct._timelib_tzinfo, ptr %20, i32 0, i32 2
  %22 = getelementptr inbounds nuw %struct.anon.0, ptr %21, i32 0, i32 2
  %23 = load i64, ptr %22, align 8, !tbaa !27
  %24 = sub i64 %23, 1
  %25 = trunc i64 %24 to i32
  store i32 %25, ptr %6, align 4, !tbaa !32
  br label %26

26:                                               ; preds = %48, %19
  %27 = load i32, ptr %6, align 4, !tbaa !32
  %28 = icmp sgt i32 %27, 0
  br i1 %28, label %29, label %51

29:                                               ; preds = %26
  %30 = load i64, ptr %5, align 8, !tbaa !64
  %31 = load ptr, ptr %4, align 8, !tbaa !4
  %32 = getelementptr inbounds nuw %struct._timelib_tzinfo, ptr %31, i32 0, i32 7
  %33 = load ptr, ptr %32, align 8, !tbaa !37
  %34 = load i32, ptr %6, align 4, !tbaa !32
  %35 = sext i32 %34 to i64
  %36 = getelementptr inbounds %struct._tlinfo, ptr %33, i64 %35
  %37 = getelementptr inbounds nuw %struct._tlinfo, ptr %36, i32 0, i32 0
  %38 = load i64, ptr %37, align 8, !tbaa !38
  %39 = icmp sgt i64 %30, %38
  br i1 %39, label %40, label %47

40:                                               ; preds = %29
  %41 = load ptr, ptr %4, align 8, !tbaa !4
  %42 = getelementptr inbounds nuw %struct._timelib_tzinfo, ptr %41, i32 0, i32 7
  %43 = load ptr, ptr %42, align 8, !tbaa !37
  %44 = load i32, ptr %6, align 4, !tbaa !32
  %45 = sext i32 %44 to i64
  %46 = getelementptr inbounds %struct._tlinfo, ptr %43, i64 %45
  store ptr %46, ptr %3, align 8
  store i32 1, ptr %7, align 4
  br label %52

47:                                               ; preds = %29
  br label %48

48:                                               ; preds = %47
  %49 = load i32, ptr %6, align 4, !tbaa !32
  %50 = add i32 %49, -1
  store i32 %50, ptr %6, align 4, !tbaa !32
  br label %26

51:                                               ; preds = %26
  store ptr null, ptr %3, align 8
  store i32 1, ptr %7, align 4
  br label %52

52:                                               ; preds = %51, %40, %18
  call void @llvm.lifetime.end.p0(i64 4, ptr %6) #11
  %53 = load ptr, ptr %3, align 8
  ret ptr %53
}

; Function Attrs: nounwind uwtable
define hidden ptr @timelib_get_time_zone_info(i64 noundef %0, ptr noundef %1) #0 {
  %3 = alloca i64, align 8
  %4 = alloca ptr, align 8
  %5 = alloca ptr, align 8
  %6 = alloca ptr, align 8
  %7 = alloca i32, align 4
  %8 = alloca i32, align 4
  %9 = alloca ptr, align 8
  %10 = alloca ptr, align 8
  %11 = alloca i64, align 8
  store i64 %0, ptr %3, align 8, !tbaa !64
  store ptr %1, ptr %4, align 8, !tbaa !4
  call void @llvm.lifetime.start.p0(i64 8, ptr %5) #11
  call void @llvm.lifetime.start.p0(i64 8, ptr %6) #11
  call void @llvm.lifetime.start.p0(i64 4, ptr %7) #11
  store i32 0, ptr %7, align 4, !tbaa !32
  call void @llvm.lifetime.start.p0(i64 4, ptr %8) #11
  store i32 0, ptr %8, align 4, !tbaa !32
  call void @llvm.lifetime.start.p0(i64 8, ptr %9) #11
  call void @llvm.lifetime.start.p0(i64 8, ptr %10) #11
  %12 = call ptr @timelib_time_offset_ctor()
  store ptr %12, ptr %10, align 8, !tbaa !97
  call void @llvm.lifetime.start.p0(i64 8, ptr %11) #11
  %13 = load ptr, ptr %4, align 8, !tbaa !4
  %14 = load i64, ptr %3, align 8, !tbaa !64
  %15 = call ptr @timelib_fetch_timezone_offset(ptr noundef %13, i64 noundef %14, ptr noundef %11)
  store ptr %15, ptr %5, align 8, !tbaa !96
  %16 = icmp ne ptr %15, null
  br i1 %16, label %17, label %37

17:                                               ; preds = %2
  %18 = load ptr, ptr %5, align 8, !tbaa !96
  %19 = getelementptr inbounds nuw %struct._ttinfo, ptr %18, i32 0, i32 0
  %20 = load i32, ptr %19, align 4, !tbaa !57
  store i32 %20, ptr %7, align 4, !tbaa !32
  %21 = load ptr, ptr %4, align 8, !tbaa !4
  %22 = getelementptr inbounds nuw %struct._timelib_tzinfo, ptr %21, i32 0, i32 6
  %23 = load ptr, ptr %22, align 8, !tbaa !61
  %24 = load ptr, ptr %5, align 8, !tbaa !96
  %25 = getelementptr inbounds nuw %struct._ttinfo, ptr %24, i32 0, i32 2
  %26 = load i32, ptr %25, align 4, !tbaa !60
  %27 = zext i32 %26 to i64
  %28 = getelementptr inbounds nuw i8, ptr %23, i64 %27
  store ptr %28, ptr %9, align 8, !tbaa !31
  %29 = load ptr, ptr %5, align 8, !tbaa !96
  %30 = getelementptr inbounds nuw %struct._ttinfo, ptr %29, i32 0, i32 1
  %31 = load i32, ptr %30, align 4, !tbaa !59
  %32 = load ptr, ptr %10, align 8, !tbaa !97
  %33 = getelementptr inbounds nuw %struct._timelib_time_offset, ptr %32, i32 0, i32 2
  store i32 %31, ptr %33, align 8, !tbaa !99
  %34 = load i64, ptr %11, align 8, !tbaa !64
  %35 = load ptr, ptr %10, align 8, !tbaa !97
  %36 = getelementptr inbounds nuw %struct._timelib_time_offset, ptr %35, i32 0, i32 4
  store i64 %34, ptr %36, align 8, !tbaa !101
  br label %45

37:                                               ; preds = %2
  store i32 0, ptr %7, align 4, !tbaa !32
  %38 = load ptr, ptr %4, align 8, !tbaa !4
  %39 = getelementptr inbounds nuw %struct._timelib_tzinfo, ptr %38, i32 0, i32 6
  %40 = load ptr, ptr %39, align 8, !tbaa !61
  store ptr %40, ptr %9, align 8, !tbaa !31
  %41 = load ptr, ptr %10, align 8, !tbaa !97
  %42 = getelementptr inbounds nuw %struct._timelib_time_offset, ptr %41, i32 0, i32 2
  store i32 0, ptr %42, align 8, !tbaa !99
  %43 = load ptr, ptr %10, align 8, !tbaa !97
  %44 = getelementptr inbounds nuw %struct._timelib_time_offset, ptr %43, i32 0, i32 4
  store i64 0, ptr %44, align 8, !tbaa !101
  br label %45

45:                                               ; preds = %37, %17
  %46 = load ptr, ptr %4, align 8, !tbaa !4
  %47 = load i64, ptr %3, align 8, !tbaa !64
  %48 = call ptr @fetch_leaptime_offset(ptr noundef %46, i64 noundef %47)
  store ptr %48, ptr %6, align 8, !tbaa !102
  %49 = icmp ne ptr %48, null
  br i1 %49, label %50, label %55

50:                                               ; preds = %45
  %51 = load ptr, ptr %6, align 8, !tbaa !102
  %52 = getelementptr inbounds nuw %struct._tlinfo, ptr %51, i32 0, i32 1
  %53 = load i32, ptr %52, align 8, !tbaa !40
  %54 = sub i32 0, %53
  store i32 %54, ptr %8, align 4, !tbaa !32
  br label %55

55:                                               ; preds = %50, %45
  %56 = load i32, ptr %7, align 4, !tbaa !32
  %57 = load ptr, ptr %10, align 8, !tbaa !97
  %58 = getelementptr inbounds nuw %struct._timelib_time_offset, ptr %57, i32 0, i32 0
  store i32 %56, ptr %58, align 8, !tbaa !103
  %59 = load i32, ptr %8, align 4, !tbaa !32
  %60 = load ptr, ptr %10, align 8, !tbaa !97
  %61 = getelementptr inbounds nuw %struct._timelib_time_offset, ptr %60, i32 0, i32 1
  store i32 %59, ptr %61, align 4, !tbaa !104
  %62 = load ptr, ptr %9, align 8, !tbaa !31
  %63 = icmp ne ptr %62, null
  br i1 %63, label %64, label %67

64:                                               ; preds = %55
  %65 = load ptr, ptr %9, align 8, !tbaa !31
  %66 = call noalias ptr @_estrdup(ptr noundef %65)
  br label %69

67:                                               ; preds = %55
  %68 = call noalias ptr @_estrdup(ptr noundef @.str.493)
  br label %69

69:                                               ; preds = %67, %64
  %70 = phi ptr [ %66, %64 ], [ %68, %67 ]
  %71 = load ptr, ptr %10, align 8, !tbaa !97
  %72 = getelementptr inbounds nuw %struct._timelib_time_offset, ptr %71, i32 0, i32 3
  store ptr %70, ptr %72, align 8, !tbaa !105
  %73 = load ptr, ptr %10, align 8, !tbaa !97
  call void @llvm.lifetime.end.p0(i64 8, ptr %11) #11
  call void @llvm.lifetime.end.p0(i64 8, ptr %10) #11
  call void @llvm.lifetime.end.p0(i64 8, ptr %9) #11
  call void @llvm.lifetime.end.p0(i64 4, ptr %8) #11
  call void @llvm.lifetime.end.p0(i64 4, ptr %7) #11
  call void @llvm.lifetime.end.p0(i64 8, ptr %6) #11
  call void @llvm.lifetime.end.p0(i64 8, ptr %5) #11
  ret ptr %73
}