; Function Attrs: nounwind uwtable
define hidden ptr @timelib_get_time_zone_info(i64 noundef %0, ptr noundef %1) local_unnamed_addr #0 {
  %3 = alloca i64, align 8
  %4 = tail call ptr @timelib_time_offset_ctor() #17
  call void @llvm.lifetime.start.p0(i64 8, ptr nonnull %3) #17
  %5 = call ptr @timelib_fetch_timezone_offset(ptr noundef %1, i64 noundef %0, ptr noundef nonnull %3)
  %.not = icmp eq ptr %5, null
  br i1 %.not, label %17, label %6

6:                                                ; preds = %2
  %7 = load i32, ptr %5, align 4, !tbaa !36
  %8 = getelementptr inbounds nuw i8, ptr %1, i64 104
  %9 = load ptr, ptr %8, align 8, !tbaa !40
  %10 = getelementptr inbounds nuw i8, ptr %5, i64 8
  %11 = load i32, ptr %10, align 4, !tbaa !39
  %12 = zext i32 %11 to i64
  %13 = getelementptr inbounds nuw i8, ptr %9, i64 %12
  %14 = getelementptr inbounds nuw i8, ptr %5, i64 4
  %15 = load i32, ptr %14, align 4, !tbaa !38
  %16 = load i64, ptr %3, align 8, !tbaa !83
  br label %20

17:                                               ; preds = %2
  %18 = getelementptr inbounds nuw i8, ptr %1, i64 104
  %19 = load ptr, ptr %18, align 8, !tbaa !40
  br label %20

20:                                               ; preds = %17, %6
  %.sink29 = phi i32 [ 0, %17 ], [ %15, %6 ]
  %.sink = phi i64 [ 0, %17 ], [ %16, %6 ]
  %.021 = phi ptr [ %19, %17 ], [ %13, %6 ]
  %.0 = phi i32 [ 0, %17 ], [ %7, %6 ]
  %21 = getelementptr inbounds nuw i8, ptr %4, i64 8
  store i32 %.sink29, ptr %21, align 8, !tbaa !84
  %22 = getelementptr inbounds nuw i8, ptr %4, i64 24
  store i64 %.sink, ptr %22, align 8, !tbaa !86
  %23 = getelementptr inbounds nuw i8, ptr %1, i64 48
  %24 = load i64, ptr %23, align 8, !tbaa !31
  %.not.i = icmp eq i64 %24, 0
  br i1 %.not.i, label %fetch_leaptime_offset.exit.thread, label %25

25:                                               ; preds = %20
  %26 = getelementptr inbounds nuw i8, ptr %1, i64 112
  %27 = load ptr, ptr %26, align 8, !tbaa !58
  %.not12.i = icmp eq ptr %27, null
  br i1 %.not12.i, label %fetch_leaptime_offset.exit.thread, label %.preheader

.preheader:                                       ; preds = %25, %29
  %indvars.iv.i = phi i64 [ %indvars.iv.next.i, %29 ], [ %24, %25 ]
  %indvars.iv.next.i = add i64 %indvars.iv.i, -1
  %indvars.i = trunc i64 %indvars.iv.next.i to i32
  %28 = icmp sgt i32 %indvars.i, 0
  br i1 %28, label %29, label %fetch_leaptime_offset.exit.thread

29:                                               ; preds = %.preheader
  %30 = and i64 %indvars.iv.next.i, 2147483647
  %31 = getelementptr inbounds nuw %struct._tlinfo, ptr %27, i64 %30
  %32 = load i64, ptr %31, align 8, !tbaa !59
  %33 = icmp sgt i64 %0, %32
  br i1 %33, label %fetch_leaptime_offset.exit, label %.preheader

fetch_leaptime_offset.exit:                       ; preds = %29
  %34 = getelementptr inbounds nuw i8, ptr %31, i64 8
  %35 = load i32, ptr %34, align 8, !tbaa !61
  %36 = sub i32 0, %35
  br label %fetch_leaptime_offset.exit.thread

fetch_leaptime_offset.exit.thread:                ; preds = %.preheader, %20, %25, %fetch_leaptime_offset.exit
  %.022 = phi i32 [ %36, %fetch_leaptime_offset.exit ], [ 0, %25 ], [ 0, %20 ], [ 0, %.preheader ]
  store i32 %.0, ptr %4, align 8, !tbaa !87
  %37 = getelementptr inbounds nuw i8, ptr %4, i64 4
  store i32 %.022, ptr %37, align 4, !tbaa !88
  %.not26 = icmp eq ptr %.021, null
  %.str.493..021 = select i1 %.not26, ptr @.str.493, ptr %.021
  %38 = call noalias ptr @_estrdup(ptr noundef nonnull %.str.493..021) #17
  %39 = getelementptr inbounds nuw i8, ptr %4, i64 16
  store ptr %38, ptr %39, align 8, !tbaa !89
  call void @llvm.lifetime.end.p0(i64 8, ptr nonnull %3) #17
  ret ptr %4
}